; Function Attrs: mustprogress nounwind uwtable
define internal fastcc void @_ZN12_GLOBAL__N_111DeclPrinter23VisitUsingDirectiveDeclEPN5clang18UsingDirectiveDeclE(ptr noundef nonnull align 8 dereferenceable(37) %0, ptr nocapture noundef readonly %1) unnamed_addr #0 align 2 {
  %3 = load ptr, ptr %0, align 8
  %4 = getelementptr inbounds nuw i8, ptr %3, i64 24
  %5 = load ptr, ptr %4, align 8
  %6 = getelementptr inbounds nuw i8, ptr %3, i64 32
  %7 = load ptr, ptr %6, align 8
  %8 = ptrtoint ptr %5 to i64
  %9 = ptrtoint ptr %7 to i64
  %10 = sub i64 %8, %9
  %11 = icmp ult i64 %10, 16
  br i1 %11, label %12, label %14

12:                                               ; preds = %2
  %13 = tail call noundef nonnull align 8 dereferenceable(48) ptr @_ZN4llvm11raw_ostream5writeEPKcm(ptr noundef nonnull align 8 dereferenceable(48) %3, ptr noundef nonnull @.str.104, i64 noundef 16) #14
  br label %_ZN4llvm11raw_ostreamlsEPKc.exit

14:                                               ; preds = %2
  tail call void @llvm.memcpy.p0.p0.i64(ptr noundef nonnull align 1 dereferenceable(16) %7, ptr noundef nonnull align 1 dereferenceable(16) @.str.104, i64 16, i1 false)
  %15 = load ptr, ptr %6, align 8
  %16 = getelementptr inbounds i8, ptr %15, i64 16
  store ptr %16, ptr %6, align 8
  br label %_ZN4llvm11raw_ostreamlsEPKc.exit

_ZN4llvm11raw_ostreamlsEPKc.exit:                 ; preds = %12, %14
  %17 = getelementptr inbounds nuw i8, ptr %1, i64 56
  %18 = load ptr, ptr %17, align 8
  %.not = icmp eq ptr %18, null
  br i1 %.not, label %22, label %19

19:                                               ; preds = %_ZN4llvm11raw_ostreamlsEPKc.exit
  %20 = load ptr, ptr %0, align 8
  %21 = getelementptr inbounds nuw i8, ptr %0, i64 8
  tail call void @_ZNK5clang19NestedNameSpecifier5printERN4llvm11raw_ostreamERKNS_14PrintingPolicyEb(ptr noundef nonnull align 8 dereferenceable(24) %18, ptr noundef nonnull align 8 dereferenceable(48) %20, ptr noundef nonnull align 8 dereferenceable(16) %21, i1 noundef zeroext false) #14
  br label %22

22:                                               ; preds = %19, %_ZN4llvm11raw_ostreamlsEPKc.exit
  %23 = load ptr, ptr %0, align 8
  %24 = getelementptr inbounds nuw i8, ptr %1, i64 72
  %25 = load ptr, ptr %24, align 8
  tail call void @_ZNK5clang9NamedDecl9printNameERN4llvm11raw_ostreamE(ptr noundef nonnull align 8 dereferenceable(48) %25, ptr noundef nonnull align 8 dereferenceable(48) %23) #14
  ret void
}